Certificate:
    Data:
        Version: 3 (0x2)
        Serial Number: 1 (0x1)
    Signature Algorithm: sha1WithRSAEncryption
        Issuer: CN=MyOwn Root Certificate Authority, ST=Berlin, C=DE/emailAddress=christopher.johnson@wikimedia.de, O=Wikimedia, OU=SD&E
        Validity
            Not Before: Jan 13 23:10:09 2014 GMT
            Not After : Jan 12 23:10:09 2019 GMT
        Subject: CN=scrumbugz.pmtpa.wmflabs, ST=Berlin, C=DE/emailAddress=christopher.johnson@wikimedia.de, O=Wikimedia, OU=SD&E
        Subject Public Key Info:
            Public Key Algorithm: rsaEncryption
                Public-Key: (1024 bit)
                Modulus:
                    00:ea:86:8c:55:86:30:49:f5:37:bd:91:8c:ac:9f:
                    54:8d:35:5c:69:7a:4b:18:21:e6:11:f2:cb:7e:20:
                    ef:9b:0d:4c:25:d0:40:e1:7a:70:5a:e1:b5:27:e4:
                    a3:16:d0:29:fb:c4:a9:30:64:ee:ff:eb:04:f2:df:
                    c9:49:6f:d7:7c:da:08:4a:03:9c:d5:49:9b:3c:44:
                    11:ff:48:12:0d:94:a5:bb:98:65:b0:91:82:72:d2:
                    ec:1a:f8:2a:10:f6:0c:2f:fd:b9:e3:e6:b0:ea:45:
                    d4:6f:c0:51:ec:35:70:e6:55:a3:20:25:50:5a:db:
                    7c:9a:ce:40:f9:c0:44:04:bd
                Exponent: 65537 (0x10001)
        X509v3 extensions:
            X509v3 Basic Constraints: 
                CA:FALSE
            X509v3 Key Usage: 
                Digital Signature, Non Repudiation, Key Encipherment
            X509v3 Subject Alternative Name: 
                DNS:wmde-bugs.wmflabs.org, DNS:alt.tradeshowhell.com
    Signature Algorithm: sha1WithRSAEncryption
         4c:c6:61:0d:9f:b8:d8:22:52:f3:81:59:ec:53:bb:35:cd:75:
         18:59:63:e3:a8:7c:9b:69:8a:95:31:ad:eb:df:91:22:78:f6:
         db:11:6b:c0:53:24:1b:4a:21:39:ae:85:44:e3:a9:33:e1:22:
         bf:42:d8:ae:a3:56:02:01:08:39:a8:09:c3:c9:9e:80:cb:d3:
         9c:97:af:15:23:6d:80:eb:12:0a:04:93:2d:e4:fd:b6:a6:b2:
         ea:a5:87:b8:1a:21:2d:c0:a0:ed:b3:09:04:fd:31:e3:0f:94:
         11:ee:1e:03:48:9d:a6:61:5a:20:ec:cf:7a:54:65:1e:df:9c:
         eb:f4:13:72:c7:19:7c:14:30:36:39:53:df:b9:ef:63:cd:20:
         74:b9:9f:c8:78:9b:82:ba:65:7f:2d:f5:df:17:a5:a5:33:d2:
         ed:8f:cc:16:52:d7:bd:c8:84:7a:ac:92:d5:6b:8d:ee:a9:eb:
         01:38:83:53:eb:66:20:5b:9a:0f:71:c4:ac:85:80:e8:d5:15:
         c8:ee:a7:57:f8:fe:f5:7d:09:f7:05:f2:f0:ac:19:6f:27:f3:
         63:d1:9b:06:fe:c0:f8:b2:a4:7f:78:b9:e7:27:30:d1:84:e5:
         0a:cd:e3:5b:5b:e0:f4:16:c3:83:ac:eb:01:15:77:51:ea:ac:
         08:8e:de:01
-----BEGIN CERTIFICATE-----
MIIDfTCCAmWgAwIBAgIBATANBgkqhkiG9w0BAQUFADCBnTEpMCcGA1UEAxMgTXlP
d24gUm9vdCBDZXJ0aWZpY2F0ZSBBdXRob3JpdHkxDzANBgNVBAgTBkJlcmxpbjEL
MAkGA1UEBhMCREUxLzAtBgkqhkiG9w0BCQEWIGNocmlzdG9waGVyLmpvaG5zb25A
d2lraW1lZGlhLmRlMRIwEAYDVQQKEwlXaWtpbWVkaWExDTALBgNVBAsUBFNEJkUw
HhcNMTQwMTEzMjMxMDA5WhcNMTkwMTEyMjMxMDA5WjCBlDEgMB4GA1UEAxMXc2Ny
dW1idWd6LnBtdHBhLndtZmxhYnMxDzANBgNVBAgTBkJlcmxpbjELMAkGA1UEBhMC
REUxLzAtBgkqhkiG9w0BCQEWIGNocmlzdG9waGVyLmpvaG5zb25Ad2lraW1lZGlh
LmRlMRIwEAYDVQQKEwlXaWtpbWVkaWExDTALBgNVBAsUBFNEJkUwgZ8wDQYJKoZI
hvcNAQEBBQADgY0AMIGJAoGBAOqGjFWGMEn1N72RjKyfVI01XGl6Sxgh5hHyy34g
75sNTCXQQOF6cFrhtSfkoxbQKfvEqTBk7v/rBPLfyUlv13zaCEoDnNVJmzxEEf9I
Eg2UpbuYZbCRgnLS7Br4KhD2DC/9uePmsOpF1G/AUew1cOZVoyAlUFrbfJrOQPnA
RAS9AgMBAAGjUzBRMAkGA1UdEwQCMAAwCwYDVR0PBAQDAgXgMDcGA1UdEQQwMC6C
FXdtZGUtYnVncy53bWZsYWJzLm9yZ4IVYWx0LnRyYWRlc2hvd2hlbGwuY29tMA0G
CSqGSIb3DQEBBQUAA4IBAQBMxmENn7jYIlLzgVnsU7s1zXUYWWPjqHybaYqVMa3r
35EiePbbEWvAUyQbSiE5roVE46kz4SK/Qtiuo1YCAQg5qAnDyZ6Ay9Ocl68VI22A
6xIKBJMt5P22prLqpYe4GiEtwKDtswkE/THjD5QR7h4DSJ2mYVog7M96VGUe35zr
9BNyxxl8FDA2OVPfue9jzSB0uZ/IeJuCumV/LfXfF6WlM9Ltj8wWUte9yIR6rJLV
a43uqesBOINT62YgW5oPccSshYDo1RXI7qdX+P71fQn3BfLwrBlvJ/Nj0ZsG/sD4
sqR/eLnnJzDRhOUKzeNbW+D0FsODrOsBFXdR6qwIjt4B
-----END CERTIFICATE-----
